target datalayout = "e-m:e-p270:32:32-p271:32:32-p272:64:64-i64:64-i128:128-f80:128-n8:16:32:64-S128"
target triple = "x86_64-pc-linux-gnu"

%"class.duckdb::BaseStatistics" = type { %"struct.duckdb::LogicalType", i8, i8, i64, %union.anon, %"class.duckdb::unique_ptr" }
%"struct.duckdb::LogicalType" = type { i8, i8, %"class.duckdb::shared_ptr" }
%"class.duckdb::shared_ptr" = type { %"class.std::shared_ptr" }
%"class.std::shared_ptr" = type { %"class.std::__shared_ptr" }
%"class.std::__shared_ptr" = type { ptr, %"class.std::__shared_count" }
%"class.std::__shared_count" = type { ptr }
%union.anon = type { %"struct.duckdb::NumericStatsData" }
%"struct.duckdb::NumericStatsData" = type { i8, i8, %"struct.duckdb::NumericValueUnion", %"struct.duckdb::NumericValueUnion" }
%"struct.duckdb::NumericValueUnion" = type { %"union.duckdb::NumericValueUnion::Val" }
%"union.duckdb::NumericValueUnion::Val" = type { %"struct.duckdb::hugeint_t" }
%"struct.duckdb::hugeint_t" = type { i64, i64 }
%"class.duckdb::unique_ptr" = type { %"class.std::unique_ptr" }
%"class.std::unique_ptr" = type { %"struct.std::__uniq_ptr_data" }
%"struct.std::__uniq_ptr_data" = type { %"class.std::__uniq_ptr_impl" }
%"class.std::__uniq_ptr_impl" = type { %"class.std::tuple" }
%"class.std::tuple" = type { %"struct.std::_Tuple_impl" }
%"struct.std::_Tuple_impl" = type { %"struct.std::_Head_base.1" }
%"struct.std::_Head_base.1" = type { ptr }

; Function Attrs: inlinehint mustprogress nounwind uwtable
define linkonce_odr noundef zeroext i8 @_ZNK6duckdb11LogicalType2idEv(ptr noundef nonnull align 8 dereferenceable(24) %0) #5 comdat align 2 {
  %2 = alloca ptr, align 8
  store ptr %0, ptr %2, align 8, !tbaa !10
  %3 = load ptr, ptr %2, align 8
  %4 = getelementptr inbounds nuw %"struct.duckdb::LogicalType", ptr %3, i32 0, i32 0
  %5 = load i8, ptr %4, align 8, !tbaa !36
  ret i8 %5
}

; Function Attrs: mustprogress nounwind uwtable
define linkonce_odr noundef nonnull align 8 dereferenceable(24) ptr @_ZNK6duckdb14BaseStatistics7GetTypeEv(ptr noundef nonnull align 8 dereferenceable(88) %0) #6 comdat align 2 {
  %2 = alloca ptr, align 8
  store ptr %0, ptr %2, align 8, !tbaa !3
  %3 = load ptr, ptr %2, align 8
  %4 = getelementptr inbounds nuw %"class.duckdb::BaseStatistics", ptr %3, i32 0, i32 0
  ret ptr %4
}

; Function Attrs: mustprogress uwtable
define void @_ZN6duckdb10ArrayStats5MergeERNS_14BaseStatisticsERKS1_(ptr noundef nonnull align 8 dereferenceable(88) %0, ptr noundef nonnull align 8 dereferenceable(88) %1) #4 align 2 {
  %3 = alloca ptr, align 8
  %4 = alloca ptr, align 8
  %5 = alloca ptr, align 8
  %6 = alloca ptr, align 8
  store ptr %0, ptr %3, align 8, !tbaa !3
  store ptr %1, ptr %4, align 8, !tbaa !3
  %7 = load ptr, ptr %4, align 8, !tbaa !3
  %8 = call noundef nonnull align 8 dereferenceable(24) ptr @_ZNK6duckdb14BaseStatistics7GetTypeEv(ptr noundef nonnull align 8 dereferenceable(88) %7)
  %9 = call noundef zeroext i8 @_ZNK6duckdb11LogicalType2idEv(ptr noundef nonnull align 8 dereferenceable(24) %8)
  %10 = icmp eq i8 %9, 53
  br i1 %10, label %11, label %12

11:                                               ; preds = %2
  br label %19

12:                                               ; preds = %2
  call void @llvm.lifetime.start.p0(i64 8, ptr %5) #3
  %13 = load ptr, ptr %3, align 8, !tbaa !3
  %14 = call noundef nonnull align 8 dereferenceable(88) ptr @_ZN6duckdb10ArrayStats13GetChildStatsERNS_14BaseStatisticsE(ptr noundef nonnull align 8 dereferenceable(88) %13)
  store ptr %14, ptr %5, align 8, !tbaa !3
  call void @llvm.lifetime.start.p0(i64 8, ptr %6) #3
  %15 = load ptr, ptr %4, align 8, !tbaa !3
  %16 = call noundef nonnull align 8 dereferenceable(88) ptr @_ZN6duckdb10ArrayStats13GetChildStatsERKNS_14BaseStatisticsE(ptr noundef nonnull align 8 dereferenceable(88) %15)
  store ptr %16, ptr %6, align 8, !tbaa !3
  %17 = load ptr, ptr %5, align 8, !tbaa !3
  %18 = load ptr, ptr %6, align 8, !tbaa !3
  call void @_ZN6duckdb14BaseStatistics5MergeERKS0_(ptr noundef nonnull align 8 dereferenceable(88) %17, ptr noundef nonnull align 8 dereferenceable(88) %18)
  call void @llvm.lifetime.end.p0(i64 8, ptr %6) #3
  call void @llvm.lifetime.end.p0(i64 8, ptr %5) #3
  br label %19

19:                                               ; preds = %12, %11
  ret void
}