; Function Attrs: mustprogress uwtable
define void @_ZN6duckdb10ArrayStats5MergeERNS_14BaseStatisticsERKS1_(ptr noundef nonnull readonly align 8 captures(none) dereferenceable(88) %0, ptr noundef nonnull readonly align 8 captures(none) dereferenceable(88) %1) local_unnamed_addr #3 align 2 {
  %3 = load i8, ptr %1, align 8, !tbaa !28
  %4 = icmp eq i8 %3, 53
  br i1 %4, label %8, label %5

5:                                                ; preds = %2
  %6 = tail call noundef nonnull align 8 dereferenceable(88) ptr @_ZN6duckdb10ArrayStats13GetChildStatsERNS_14BaseStatisticsE(ptr noundef nonnull align 8 dereferenceable(88) %0)
  %7 = tail call noundef nonnull align 8 dereferenceable(88) ptr @_ZN6duckdb10ArrayStats13GetChildStatsERKNS_14BaseStatisticsE(ptr noundef nonnull align 8 dereferenceable(88) %1)
  tail call void @_ZN6duckdb14BaseStatistics5MergeERKS0_(ptr noundef nonnull align 8 dereferenceable(88) %6, ptr noundef nonnull align 8 dereferenceable(88) %7)
  br label %8

8:                                                ; preds = %2, %5
  ret void
}